; Function Attrs: mustprogress noreturn nounwind uwtable
define dso_local void @_ZN4llvm18report_fatal_errorENS_9StringRefEb(ptr %0, i64 %1, i1 noundef zeroext %2) local_unnamed_addr #1 {
  %4 = alloca %"class.llvm::Twine", align 8
  %5 = getelementptr inbounds nuw i8, ptr %4, i64 32
  store i8 5, ptr %5, align 8
  %6 = getelementptr inbounds nuw i8, ptr %4, i64 33
  store i8 1, ptr %6, align 1
  store ptr %0, ptr %4, align 8
  %7 = getelementptr inbounds nuw i8, ptr %4, i64 8
  store i64 %1, ptr %7, align 8
  call void @_ZN4llvm18report_fatal_errorERKNS_5TwineEb(ptr noundef nonnull align 8 dereferenceable(34) %4, i1 noundef zeroext %2) #14
  unreachable
}